(lp1
(lp2
I28
aI14
aI0
aI0
aa(lp3
I21
aI11
aI0
aI0
aa(lp4
I3
aI1
aI0
aI0
aa(lp5
I36
aI17
aI0
aI0
aa(lp6
I65
aI13
aI0
aI0
aa(lp7
I45
aI10
aI0
aI0
aa(lp8
I17
aI6
aI0
aI0
aa(lp9
I29
aI10
aI0
aI0
aa(lp10
I15
aI6
aI0
aI0
aa(lp11
I6
aI3
aI0
aI0
aa(lp12
I10
aI5
aI0
aI0
aa(lp13
I29
aI5
aI0
aI0
aa(lp14
I31
aI15
aI0
aI0
aa(lp15
I4
aI1
aI0
aI0
aa(lp16
I5
aI0
aI0
aI0
aa(lp17
I11
aI5
aI0
aI0
aa(lp18
I12
aI4
aI0
aI0
aa(lp19
I15
aI8
aI0
aI0
aa(lp20
I16
aI4
aI0
aI0
aa(lp21
I5
aI1
aI0
aI0
aa(lp22
I47
aI16
aI0
aI0
aa(lp23
I6
aI2
aI0
aI0
aa(lp24
I28
aI11
aI0
aI0
aa(lp25
I3
aI1
aI0
aI0
aa(lp26
I15
aI2
aI0
aI0
aa(lp27
I10
aI2
aI0
aI0
aa(lp28
I16
aI6
aI0
aI0
aa(lp29
I14
aI5
aI0
aI0
aa(lp30
I3
aI1
aI0
aI0
aa(lp31
I13
aI4
aI0
aI0
aa(lp32
I1
aI0
aI0
aI0
aa(lp33
I4
aI2
aI0
aI0
aa(lp34
I5
aI2
aI0
aI0
aa(lp35
I9
aI6
aI0
aI0
aa(lp36
I5
aI1
aI0
aI0
aa(lp37
I6
aI3
aI0
aI0
aa(lp38
I3
aI1
aI0
aI0
aa(lp39
I13
aI6
aI0
aI0
aa(lp40
I85
aI40
aI0
aI0
aa(lp41
I52
aI17
aI0
aI0
aa(lp42
I10
aI5
aI0
aI0
aa(lp43
I2
aI0
aI0
aI0
aa(lp44
I14
aI5
aI0
aI0
aa(lp45
I39
aI8
aI0
aI0
aa(lp46
I40
aI23
aI0
aI0
aa(lp47
I4
aI1
aI0
aI0
aa(lp48
I263
aI107
aI0
aI26
aa(lp49
I4
aI0
aI0
aI0
aa(lp50
I114
aI62
aI0
aI0
aa(lp51
I11
aI8
aI0
aI0
aa(lp52
I3
aI0
aI0
aI0
aa(lp53
I24
aI6
aI0
aI0
aa(lp54
I10
aI3
aI0
aI0
aa(lp55
I1
aI0
aI0
aI0
aa(lp56
I15
aI7
aI0
aI0
aa(lp57
I32
aI9
aI0
aI0
aa(lp58
I15
aI4
aI0
aI0
aa(lp59
I25
aI10
aI0
aI0
aa(lp60
I9
aI2
aI0
aI0
aa(lp61
I21
aI5
aI0
aI0
aa(lp62
I12
aI5
aI0
aI0
aa(lp63
I60
aI24
aI0
aI0
aa(lp64
I12
aI2
aI0
aI0
aa(lp65
I17
aI6
aI0
aI0
aa(lp66
I33
aI13
aI0
aI0
aa(lp67
I40
aI13
aI0
aI0
aa(lp68
I4
aI1
aI0
aI0
aa(lp69
I42
aI14
aI0
aI0
aa(lp70
I28
aI15
aI0
aI0
aa(lp71
I16
aI8
aI0
aI0
aa(lp72
I3
aI1
aI0
aI0
aa(lp73
I2
aI0
aI0
aI0
aa(lp74
I9
aI3
aI0
aI0
aa(lp75
I17
aI6
aI0
aI0
aa(lp76
I1
aI0
aI0
aI0
aa(lp77
I28
aI15
aI0
aI0
aa(lp78
I18
aI7
aI0
aI0
aa(lp79
I2
aI0
aI0
aI0
aa(lp80
I9
aI3
aI0
aI0
aa(lp81
I1
aI0
aI0
aI0
aa(lp82
I28
aI11
aI0
aI0
aa(lp83
I19
aI8
aI0
aI0
aa(lp84
I3
aI1
aI0
aI0
aa(lp85
I15
aI7
aI0
aI0
aa(lp86
I16
aI7
aI0
aI0
aa(lp87
I10
aI6
aI0
aI0
aa(lp88
I15
aI6
aI0
aI0
aa(lp89
I21
aI9
aI0
aI0
aa(lp90
I41
aI15
aI0
aI0
aa(lp91
I18
aI3
aI0
aI0
aa(lp92
I1
aI0
aI0
aI0
aa(lp93
I33
aI12
aI0
aI0
aa(lp94
I15
aI2
aI0
aI0
aa(lp95
I13
aI5
aI0
aI0
aa(lp96
I3
aI0
aI0
aI0
aa(lp97
I13
aI6
aI0
aI0
aa(lp98
I7
aI3
aI0
aI0
aa(lp99
I4
aI2
aI0
aI0
aa(lp100
I34
aI19
aI0
aI0
aa(lp101
I19
aI7
aI0
aI0
aa(lp102
I14
aI5
aI0
aI0
aa(lp103
I7
aI2
aI0
aI0
aa(lp104
I38
aI17
aI0
aI0
aa(lp105
I30
aI11
aI0
aI0
aa(lp106
I11
aI3
aI0
aI0
aa(lp107
I16
aI5
aI0
aI0
aa(lp108
I7
aI5
aI0
aI0
aa(lp109
I16
aI1
aI0
aI0
aa(lp110
I9
aI3
aI0
aI0
aa(lp111
I8
aI1
aI0
aI0
aa(lp112
I11
aI6
aI0
aI0
aa(lp113
I19
aI7
aI0
aI0
aa(lp114
I38
aI17
aI0
aI0
aa(lp115
I2
aI0
aI0
aI0
aa(lp116
I3
aI1
aI0
aI0
aa(lp117
I19
aI9
aI0
aI0
aa(lp118
I5
aI2
aI0
aI0
aa(lp119
I28
aI7
aI0
aI0
aa(lp120
I2
aI0
aI0
aI0
aa(lp121
I3
aI0
aI0
aI0
aa(lp122
I16
aI4
aI0
aI0
aa(lp123
I3
aI0
aI0
aI0
aa(lp124
I1
aI0
aI0
aI0
aa(lp125
I11
aI2
aI0
aI0
aa(lp126
I2
aI0
aI0
aI0
aa(lp127
I20
aI9
aI0
aI0
aa(lp128
I39
aI12
aI0
aI0
aa(lp129
I30
aI8
aI0
aI0
aa(lp130
I39
aI21
aI0
aI0
aa(lp131
I33
aI15
aI0
aI0
aa(lp132
I3
aI1
aI0
aI0
aa(lp133
I26
aI6
aI0
aI0
aa(lp134
I54
aI9
aI0
aI0
aa(lp135
I39
aI18
aI0
aI0
aa(lp136
I11
aI5
aI0
aI0
aa(lp137
I14
aI5
aI0
aI0
aa(lp138
I13
aI7
aI0
aI0
aa(lp139
I2
aI0
aI0
aI0
aa(lp140
I18
aI8
aI0
aI0
aa(lp141
I6
aI2
aI0
aI0
aa(lp142
I28
aI10
aI0
aI0
aa(lp143
I12
aI6
aI0
aI0
aa(lp144
I1
aI0
aI0
aI0
aa(lp145
I15
aI8
aI0
aI0
aa(lp146
I17
aI8
aI0
aI0
aa(lp147
I15
aI6
aI0
aI0
aa(lp148
I14
aI5
aI0
aI0
aa(lp149
I17
aI8
aI0
aI0
aa(lp150
I2
aI0
aI0
aI0
aa(lp151
I48
aI15
aI0
aI0
aa(lp152
I31
aI14
aI0
aI0
aa(lp153
I11
aI4
aI0
aI0
aa(lp154
I1
aI0
aI0
aI0
aa(lp155
I2
aI0
aI0
aI0
aa(lp156
I25
aI8
aI0
aI0
aa(lp157
I23
aI9
aI0
aI0
aa(lp158
I8
aI7
aI0
aI0
aa(lp159
I26
aI14
aI0
aI0
aa.